; Function Attrs: mustprogress uwtable
define hidden void @_ZNK8datatype11constructor11instantiateEP4sort(ptr dead_on_unwind noalias writable writeonly sret(%class.obj_ref.0) align 8 captures(none) %0, ptr noundef nonnull readonly align 8 captures(none) dereferenceable(32) %1, ptr noundef readonly captures(none) %2) local_unnamed_addr #4 align 2 personality ptr @__gxx_personality_v0 {
  %4 = alloca %class.ref_vector, align 8
  call void @llvm.lifetime.start.p0(i64 16, ptr nonnull %4) #28
  %5 = getelementptr inbounds nuw i8, ptr %1, i64 24
  %6 = load ptr, ptr %5, align 8, !tbaa !27
  %7 = getelementptr inbounds nuw i8, ptr %6, i64 8
  %8 = load ptr, ptr %7, align 8, !tbaa !37
  call void @_ZNK8datatype4util15datatype_paramsEP4sort(ptr dead_on_unwind nonnull writable sret(%class.ref_vector) align 8 %4, ptr noundef nonnull align 8 dereferenceable(24) %8, ptr noundef %2)
  invoke void @_ZNK8datatype11constructor11instantiateERK10ref_vectorI4sort11ast_managerE(ptr dead_on_unwind writable sret(%class.obj_ref.0) align 8 %0, ptr noundef nonnull align 8 dereferenceable(32) %1, ptr noundef nonnull align 8 dereferenceable(16) %4)
          to label %9 unwind label %35

9:                                                ; preds = %3
  %10 = getelementptr inbounds nuw i8, ptr %4, i64 8
  %11 = load ptr, ptr %10, align 8, !tbaa !16
  %12 = icmp eq ptr %11, null
  br i1 %12, label %_ZN15ref_vector_coreI4sort19ref_manager_wrapperIS0_11ast_managerEED2Ev.exit, label %_ZNK6vectorIP4sortLb0EjE4sizeEv.exit.i

_ZNK6vectorIP4sortLb0EjE4sizeEv.exit.i:           ; preds = %9
  %13 = getelementptr inbounds i8, ptr %11, i64 -4
  %14 = load i32, ptr %13, align 4, !tbaa !25
  %15 = zext i32 %14 to i64
  %16 = getelementptr inbounds nuw ptr, ptr %11, i64 %15
  %.not.i = icmp eq i32 %14, 0
  br i1 %.not.i, label %_ZN15ref_vector_coreI4sort19ref_manager_wrapperIS0_11ast_managerEE13dec_range_refEPKPS0_S7_.exit.thread4.i, label %.lr.ph.i.i

.lr.ph.i.i:                                       ; preds = %_ZNK6vectorIP4sortLb0EjE4sizeEv.exit.i, %_ZN15ref_vector_coreI4sort19ref_manager_wrapperIS0_11ast_managerEE7dec_refEPS0_.exit.i.i
  %.06.i.i = phi ptr [ %25, %_ZN15ref_vector_coreI4sort19ref_manager_wrapperIS0_11ast_managerEE7dec_refEPS0_.exit.i.i ], [ %11, %_ZNK6vectorIP4sortLb0EjE4sizeEv.exit.i ]
  %17 = load ptr, ptr %.06.i.i, align 8, !tbaa !20
  %18 = load ptr, ptr %4, align 8, !tbaa !23
  %.not.i.i.i.i.i = icmp eq ptr %17, null
  br i1 %.not.i.i.i.i.i, label %_ZN15ref_vector_coreI4sort19ref_manager_wrapperIS0_11ast_managerEE7dec_refEPS0_.exit.i.i, label %19

19:                                               ; preds = %.lr.ph.i.i
  %20 = getelementptr inbounds nuw i8, ptr %17, i64 8
  %21 = load i32, ptr %20, align 4, !tbaa !21
  %22 = add i32 %21, -1
  store i32 %22, ptr %20, align 4, !tbaa !21
  %23 = icmp eq i32 %22, 0
  br i1 %23, label %24, label %_ZN15ref_vector_coreI4sort19ref_manager_wrapperIS0_11ast_managerEE7dec_refEPS0_.exit.i.i

24:                                               ; preds = %19
  invoke void @_ZN11ast_manager11delete_nodeEP3ast(ptr noundef nonnull align 8 dereferenceable(976) %18, ptr noundef nonnull %17)
          to label %_ZN15ref_vector_coreI4sort19ref_manager_wrapperIS0_11ast_managerEE7dec_refEPS0_.exit.i.i unwind label %32

_ZN15ref_vector_coreI4sort19ref_manager_wrapperIS0_11ast_managerEE7dec_refEPS0_.exit.i.i: ; preds = %24, %19, %.lr.ph.i.i
  %25 = getelementptr inbounds nuw i8, ptr %.06.i.i, i64 8
  %26 = icmp ult ptr %25, %16
  br i1 %26, label %.lr.ph.i.i, label %_ZN15ref_vector_coreI4sort19ref_manager_wrapperIS0_11ast_managerEE13dec_range_refEPKPS0_S7_.exit.i, !llvm.loop !64

_ZN15ref_vector_coreI4sort19ref_manager_wrapperIS0_11ast_managerEE13dec_range_refEPKPS0_S7_.exit.i: ; preds = %_ZN15ref_vector_coreI4sort19ref_manager_wrapperIS0_11ast_managerEE7dec_refEPS0_.exit.i.i
  %.pre.i = load ptr, ptr %10, align 8, !tbaa !16
  %.not.i.i.i = icmp eq ptr %.pre.i, null
  br i1 %.not.i.i.i, label %_ZN15ref_vector_coreI4sort19ref_manager_wrapperIS0_11ast_managerEED2Ev.exit, label %_ZN15ref_vector_coreI4sort19ref_manager_wrapperIS0_11ast_managerEE13dec_range_refEPKPS0_S7_.exit.thread4.i

_ZN15ref_vector_coreI4sort19ref_manager_wrapperIS0_11ast_managerEE13dec_range_refEPKPS0_S7_.exit.thread4.i: ; preds = %_ZN15ref_vector_coreI4sort19ref_manager_wrapperIS0_11ast_managerEE13dec_range_refEPKPS0_S7_.exit.i, %_ZNK6vectorIP4sortLb0EjE4sizeEv.exit.i
  %27 = phi ptr [ %.pre.i, %_ZN15ref_vector_coreI4sort19ref_manager_wrapperIS0_11ast_managerEE13dec_range_refEPKPS0_S7_.exit.i ], [ %11, %_ZNK6vectorIP4sortLb0EjE4sizeEv.exit.i ]
  %28 = getelementptr inbounds i8, ptr %27, i64 -8
  invoke void @_ZN6memory10deallocateEPv(ptr noundef nonnull %28)
          to label %_ZN15ref_vector_coreI4sort19ref_manager_wrapperIS0_11ast_managerEED2Ev.exit unwind label %29

29:                                               ; preds = %_ZN15ref_vector_coreI4sort19ref_manager_wrapperIS0_11ast_managerEE13dec_range_refEPKPS0_S7_.exit.thread4.i
  %30 = landingpad { ptr, i32 }
          catch ptr null
  %31 = extractvalue { ptr, i32 } %30, 0
  call void @__clang_call_terminate(ptr %31) #29
  unreachable

32:                                               ; preds = %24
  %33 = landingpad { ptr, i32 }
          catch ptr null
  %34 = extractvalue { ptr, i32 } %33, 0
  call void @__clang_call_terminate(ptr %34) #29
  unreachable

_ZN15ref_vector_coreI4sort19ref_manager_wrapperIS0_11ast_managerEED2Ev.exit: ; preds = %9, %_ZN15ref_vector_coreI4sort19ref_manager_wrapperIS0_11ast_managerEE13dec_range_refEPKPS0_S7_.exit.i, %_ZN15ref_vector_coreI4sort19ref_manager_wrapperIS0_11ast_managerEE13dec_range_refEPKPS0_S7_.exit.thread4.i
  call void @llvm.lifetime.end.p0(i64 16, ptr nonnull %4) #28
  ret void

35:                                               ; preds = %3
  %36 = landingpad { ptr, i32 }
          cleanup
  call void @_ZN15ref_vector_coreI4sort19ref_manager_wrapperIS0_11ast_managerEED2Ev(ptr noundef nonnull align 8 dereferenceable(16) %4) #28
  call void @llvm.lifetime.end.p0(i64 16, ptr nonnull %4) #28
  resume { ptr, i32 } %36
}